target datalayout = "e-m:e-p270:32:32-p271:32:32-p272:64:64-i64:64-i128:128-f80:128-n8:16:32:64-S128"
target triple = "x86_64-pc-linux-gnu"

%struct.ossl_qrx_st = type { ptr, ptr, ptr, i64, i64, i64, %struct.ossl_list_st_urxe, %struct.ossl_list_st_urxe, %struct.ossl_list_st_rxe, %struct.ossl_list_st_rxe, [3 x i64], %struct.ossl_qrl_enc_level_set_st, i64, i64, i64, ptr, ptr, ptr, ptr, i8, i8, ptr, ptr, ptr }
%struct.ossl_list_st_urxe = type { ptr, ptr, i64 }
%struct.ossl_list_st_rxe = type { ptr, ptr, i64 }
%struct.ossl_qrl_enc_level_set_st = type { [4 x %struct.ossl_qrl_enc_level_st] }
%struct.ossl_qrl_enc_level_st = type { %struct.quic_hdr_protector_st, ptr, [2 x ptr], ptr, ptr, i64, i64, i32, i32, i8, i8, [2 x [16 x i8]], [64 x i8] }
%struct.quic_hdr_protector_st = type { ptr, ptr, ptr, ptr, i32 }

; Function Attrs: nounwind uwtable
define i64 @ossl_qrx_get_max_forged_pkt_count(ptr noundef %0, i32 noundef %1) #0 {
  %3 = alloca ptr, align 8
  %4 = alloca i32, align 4
  %5 = alloca ptr, align 8
  store ptr %0, ptr %3, align 8, !tbaa !15
  store i32 %1, ptr %4, align 4, !tbaa !37
  call void @llvm.lifetime.start.p0(i64 8, ptr %5) #8
  %6 = load ptr, ptr %3, align 8, !tbaa !15
  %7 = getelementptr inbounds nuw %struct.ossl_qrx_st, ptr %6, i32 0, i32 11
  %8 = load i32, ptr %4, align 4, !tbaa !37
  %9 = call ptr @ossl_qrl_enc_level_set_get(ptr noundef %7, i32 noundef %8, i32 noundef 1)
  store ptr %9, ptr %5, align 8, !tbaa !101
  %10 = load ptr, ptr %5, align 8, !tbaa !101
  %11 = icmp eq ptr %10, null
  br i1 %11, label %12, label %13

12:                                               ; preds = %2
  br label %18

13:                                               ; preds = %2
  %14 = load ptr, ptr %5, align 8, !tbaa !101
  %15 = getelementptr inbounds nuw %struct.ossl_qrl_enc_level_st, ptr %14, i32 0, i32 7
  %16 = load i32, ptr %15, align 8, !tbaa !110
  %17 = call i64 @ossl_qrl_get_suite_max_forged_pkt(i32 noundef %16)
  br label %18

18:                                               ; preds = %13, %12
  %19 = phi i64 [ -1, %12 ], [ %17, %13 ]
  call void @llvm.lifetime.end.p0(i64 8, ptr %5) #8
  ret i64 %19
}