; Function Attrs: nounwind uwtable
define i64 @ossl_qrx_get_max_forged_pkt_count(ptr noundef %0, i32 noundef %1) local_unnamed_addr #0 {
  %3 = getelementptr inbounds nuw i8, ptr %0, i64 168
  %4 = tail call ptr @ossl_qrl_enc_level_set_get(ptr noundef nonnull %3, i32 noundef %1, i32 noundef 1) #11
  %5 = icmp eq ptr %4, null
  br i1 %5, label %10, label %6

6:                                                ; preds = %2
  %7 = getelementptr inbounds nuw i8, ptr %4, i64 96
  %8 = load i32, ptr %7, align 8, !tbaa !97
  %9 = tail call i64 @ossl_qrl_get_suite_max_forged_pkt(i32 noundef %8) #11
  br label %10

10:                                               ; preds = %2, %6
  %11 = phi i64 [ %9, %6 ], [ -1, %2 ]
  ret i64 %11
}